target datalayout = "e-m:e-p270:32:32-p271:32:32-p272:64:64-i64:64-i128:128-f80:128-n8:16:32:64-S128"
target triple = "x86_64-pc-linux-gnu"

%"struct.Luau::CodeGen::X64::RegisterX64" = type { i8 }
%"struct.Luau::CodeGen::X64::IrRegAllocX64" = type { ptr, ptr, ptr, i32, %"struct.std::array", %"struct.std::array.0", %"struct.std::array", %"struct.std::array.0", i8, %"class.std::bitset", i32, i32, %"class.std::vector" }
%"struct.std::array" = type { [16 x i8] }
%"struct.std::array.0" = type { [16 x i32] }
%"class.std::bitset" = type { %"struct.std::_Base_bitset" }
%"struct.std::_Base_bitset" = type { [4 x i64] }
%"class.std::vector" = type { %"struct.std::_Vector_base" }
%"struct.std::_Vector_base" = type { %"struct.std::_Vector_base<Luau::CodeGen::X64::IrSpillX64, std::allocator<Luau::CodeGen::X64::IrSpillX64>>::_Vector_impl" }
%"struct.std::_Vector_base<Luau::CodeGen::X64::IrSpillX64, std::allocator<Luau::CodeGen::X64::IrSpillX64>>::_Vector_impl" = type { %"struct.std::_Vector_base<Luau::CodeGen::X64::IrSpillX64, std::allocator<Luau::CodeGen::X64::IrSpillX64>>::_Vector_impl_data" }
%"struct.std::_Vector_base<Luau::CodeGen::X64::IrSpillX64, std::allocator<Luau::CodeGen::X64::IrSpillX64>>::_Vector_impl_data" = type { ptr, ptr, ptr }

; Function Attrs: mustprogress nounwind uwtable
define linkonce_odr dso_local noundef nonnull align 4 dereferenceable(4) ptr @_ZNSt14__array_traitsIjLm16EE6_S_refERA16_Kjm(ptr noundef nonnull align 4 dereferenceable(64) %0, i64 noundef %1) #1 comdat align 2 {
  %3 = alloca ptr, align 8
  %4 = alloca i64, align 8
  store ptr %0, ptr %3, align 8
  store i64 %1, ptr %4, align 8
  %5 = load ptr, ptr %3, align 8
  %6 = load i64, ptr %4, align 8
  %7 = getelementptr inbounds [16 x i32], ptr %5, i64 0, i64 %6
  ret ptr %7
}

; Function Attrs: mustprogress nounwind uwtable
define linkonce_odr dso_local noundef nonnull align 1 dereferenceable(1) ptr @_ZNSt14__array_traitsIbLm16EE6_S_refERA16_Kbm(ptr noundef nonnull align 1 dereferenceable(16) %0, i64 noundef %1) #1 comdat align 2 {
  %3 = alloca ptr, align 8
  %4 = alloca i64, align 8
  store ptr %0, ptr %3, align 8
  store i64 %1, ptr %4, align 8
  %5 = load ptr, ptr %3, align 8
  %6 = load i64, ptr %4, align 8
  %7 = getelementptr inbounds [16 x i8], ptr %5, i64 0, i64 %6
  ret ptr %7
}

; Function Attrs: mustprogress nounwind uwtable
define linkonce_odr dso_local noundef nonnull align 4 dereferenceable(4) ptr @_ZNKSt5arrayIjLm16EEixEm(ptr noundef nonnull align 4 dereferenceable(64) %0, i64 noundef %1) #1 comdat align 2 {
  %3 = alloca ptr, align 8
  %4 = alloca i64, align 8
  store ptr %0, ptr %3, align 8
  store i64 %1, ptr %4, align 8
  %5 = load ptr, ptr %3, align 8
  %6 = getelementptr inbounds %"struct.std::array.0", ptr %5, i32 0, i32 0
  %7 = load i64, ptr %4, align 8
  %8 = call noundef nonnull align 4 dereferenceable(4) ptr @_ZNSt14__array_traitsIjLm16EE6_S_refERA16_Kjm(ptr noundef nonnull align 4 dereferenceable(64) %6, i64 noundef %7) #10
  ret ptr %8
}

; Function Attrs: mustprogress nounwind uwtable
define linkonce_odr dso_local noundef nonnull align 1 dereferenceable(1) ptr @_ZNKSt5arrayIbLm16EEixEm(ptr noundef nonnull align 1 dereferenceable(16) %0, i64 noundef %1) #1 comdat align 2 {
  %3 = alloca ptr, align 8
  %4 = alloca i64, align 8
  store ptr %0, ptr %3, align 8
  store i64 %1, ptr %4, align 8
  %5 = load ptr, ptr %3, align 8
  %6 = getelementptr inbounds %"struct.std::array", ptr %5, i32 0, i32 0
  %7 = load i64, ptr %4, align 8
  %8 = call noundef nonnull align 1 dereferenceable(1) ptr @_ZNSt14__array_traitsIbLm16EE6_S_refERA16_Kbm(ptr noundef nonnull align 1 dereferenceable(16) %6, i64 noundef %7) #10
  ret ptr %8
}

; Function Attrs: mustprogress nounwind uwtable
define dso_local noundef zeroext i1 @_ZNK4Luau7CodeGen3X6413IrRegAllocX6410canTakeRegENS1_11RegisterX64E(ptr noundef nonnull align 8 dereferenceable(256) %0, i8 %1) #1 align 2 {
  %3 = alloca %"struct.Luau::CodeGen::X64::RegisterX64", align 1
  %4 = alloca ptr, align 8
  %5 = alloca ptr, align 8
  %6 = alloca ptr, align 8
  %7 = getelementptr inbounds %"struct.Luau::CodeGen::X64::RegisterX64", ptr %3, i32 0, i32 0
  store i8 %1, ptr %7, align 1
  store ptr %0, ptr %4, align 8
  %8 = load ptr, ptr %4, align 8
  %9 = load i8, ptr %3, align 1
  %10 = and i8 %9, 7
  %11 = icmp eq i8 %10, 5
  br i1 %11, label %12, label %14

12:                                               ; preds = %2
  %13 = getelementptr inbounds %"struct.Luau::CodeGen::X64::IrRegAllocX64", ptr %8, i32 0, i32 6
  br label %16

14:                                               ; preds = %2
  %15 = getelementptr inbounds %"struct.Luau::CodeGen::X64::IrRegAllocX64", ptr %8, i32 0, i32 4
  br label %16

16:                                               ; preds = %14, %12
  %17 = phi ptr [ %13, %12 ], [ %15, %14 ]
  store ptr %17, ptr %5, align 8
  %18 = load i8, ptr %3, align 1
  %19 = and i8 %18, 7
  %20 = icmp eq i8 %19, 5
  br i1 %20, label %21, label %23

21:                                               ; preds = %16
  %22 = getelementptr inbounds %"struct.Luau::CodeGen::X64::IrRegAllocX64", ptr %8, i32 0, i32 7
  br label %25

23:                                               ; preds = %16
  %24 = getelementptr inbounds %"struct.Luau::CodeGen::X64::IrRegAllocX64", ptr %8, i32 0, i32 5
  br label %25

25:                                               ; preds = %23, %21
  %26 = phi ptr [ %22, %21 ], [ %24, %23 ]
  store ptr %26, ptr %6, align 8
  %27 = load ptr, ptr %5, align 8
  %28 = load i8, ptr %3, align 1
  %29 = lshr i8 %28, 3
  %30 = zext i8 %29 to i64
  %31 = call noundef nonnull align 1 dereferenceable(1) ptr @_ZNKSt5arrayIbLm16EEixEm(ptr noundef nonnull align 1 dereferenceable(16) %27, i64 noundef %30) #10
  %32 = load i8, ptr %31, align 1
  %33 = trunc i8 %32 to i1
  br i1 %33, label %42, label %34

34:                                               ; preds = %25
  %35 = load ptr, ptr %6, align 8
  %36 = load i8, ptr %3, align 1
  %37 = lshr i8 %36, 3
  %38 = zext i8 %37 to i64
  %39 = call noundef nonnull align 4 dereferenceable(4) ptr @_ZNKSt5arrayIjLm16EEixEm(ptr noundef nonnull align 4 dereferenceable(64) %35, i64 noundef %38) #10
  %40 = load i32, ptr %39, align 4
  %41 = icmp ne i32 %40, -1
  br label %42

42:                                               ; preds = %34, %25
  %43 = phi i1 [ true, %25 ], [ %41, %34 ]
  ret i1 %43
}