; Function Attrs: mustprogress nofree norecurse nosync nounwind willreturn memory(argmem: read) uwtable
define dso_local noundef zeroext i1 @_ZNK4Luau7CodeGen3X6413IrRegAllocX6410canTakeRegENS1_11RegisterX64E(ptr nocapture noundef nonnull readonly align 8 dereferenceable(256) %0, i8 %1) local_unnamed_addr #3 align 2 {
  %3 = and i8 %1, 7
  %4 = icmp eq i8 %3, 5
  %.v = select i1 %4, i64 108, i64 28
  %5 = getelementptr inbounds i8, ptr %0, i64 %.v
  %6 = lshr i8 %1, 3
  %7 = zext nneg i8 %6 to i64
  %8 = getelementptr inbounds [16 x i8], ptr %5, i64 0, i64 %7
  %9 = load i8, ptr %8, align 1
  %10 = trunc i8 %9 to i1
  br i1 %10, label %16, label %11

11:                                               ; preds = %2
  %.v6 = select i1 %4, i64 124, i64 44
  %12 = getelementptr inbounds i8, ptr %0, i64 %.v6
  %13 = getelementptr inbounds [16 x i32], ptr %12, i64 0, i64 %7
  %14 = load i32, ptr %13, align 4
  %15 = icmp ne i32 %14, -1
  br label %16

16:                                               ; preds = %11, %2
  %17 = phi i1 [ true, %2 ], [ %15, %11 ]
  ret i1 %17
}